; Function Attrs: mustprogress uwtable
define void @_ZNK8QuantLib15IndexedCashFlow19performCalculationsEv(ptr noundef nonnull align 8 dereferenceable(81) %this) unnamed_addr #8 align 2 {
entry:
  %vtable = load ptr, ptr %this, align 8, !tbaa !33
  %vfn = getelementptr inbounds i8, ptr %vtable, i64 104
  %0 = load ptr, ptr %vfn, align 8
  %call = tail call noundef double %0(ptr noundef nonnull align 8 dereferenceable(81) %this)
  %vtable2 = load ptr, ptr %this, align 8, !tbaa !33
  %vfn3 = getelementptr inbounds i8, ptr %vtable2, i64 112
  %1 = load ptr, ptr %vfn3, align 8
  %call4 = tail call noundef double %1(ptr noundef nonnull align 8 dereferenceable(81) %this)
  %growthOnly_ = getelementptr inbounds nuw i8, ptr %this, i64 80
  %2 = load i8, ptr %growthOnly_, align 8, !tbaa !54, !range !26, !noundef !27
  %loadedv = trunc nuw i8 %2 to i1
  %notional_ = getelementptr inbounds nuw i8, ptr %this, i64 32
  %3 = load double, ptr %notional_, align 8, !tbaa !46
  %div = fdiv double %call4, %call
  %sub = fadd double %div, -1.000000e+00
  %div.sink = select i1 %loadedv, double %sub, double %div
  %mul7 = fmul double %div.sink, %3
  %4 = getelementptr inbounds nuw i8, ptr %this, i64 24
  store double %mul7, ptr %4, align 8
  ret void
}